target datalayout = "e-m:e-p270:32:32-p271:32:32-p272:64:64-i64:64-i128:128-f80:128-n8:16:32:64-S128"
target triple = "x86_64-pc-linux-gnu"

%struct.dynbuf = type { ptr, i64, i64, i64 }
%struct.dohentry = type { [4 x %struct.dynbuf], [24 x %struct.dohaddr], i32, i32, i32 }
%struct.dohaddr = type { i32, %union.anon.2 }
%union.anon.2 = type { [16 x i8] }

@.str.9 = private unnamed_addr constant [2 x i8] c".\00", align 1

; Function Attrs: nounwind uwtable
define internal i32 @doh_store_cname(ptr noundef %0, i64 noundef %1, i32 noundef %2, ptr noundef %3) #0 {
  %5 = alloca i32, align 4
  %6 = alloca ptr, align 8
  %7 = alloca i64, align 8
  %8 = alloca i32, align 4
  %9 = alloca ptr, align 8
  %10 = alloca ptr, align 8
  %11 = alloca i32, align 4
  %12 = alloca i8, align 1
  %13 = alloca i32, align 4
  %14 = alloca i32, align 4
  store ptr %0, ptr %6, align 8, !tbaa !9
  store i64 %1, ptr %7, align 8, !tbaa !86
  store i32 %2, ptr %8, align 4, !tbaa !11
  store ptr %3, ptr %9, align 8, !tbaa !134
  call void @llvm.lifetime.start.p0(i64 8, ptr %10) #7
  call void @llvm.lifetime.start.p0(i64 4, ptr %11) #7
  store i32 128, ptr %11, align 4, !tbaa !11
  call void @llvm.lifetime.start.p0(i64 1, ptr %12) #7
  %15 = load ptr, ptr %9, align 8, !tbaa !134
  %16 = getelementptr inbounds nuw %struct.dohentry, ptr %15, i32 0, i32 4
  %17 = load i32, ptr %16, align 8, !tbaa !145
  %18 = icmp eq i32 %17, 4
  br i1 %18, label %19, label %20

19:                                               ; preds = %4
  store i32 0, ptr %5, align 4
  store i32 1, ptr %13, align 4
  br label %132

20:                                               ; preds = %4
  %21 = load ptr, ptr %9, align 8, !tbaa !134
  %22 = getelementptr inbounds nuw %struct.dohentry, ptr %21, i32 0, i32 0
  %23 = load ptr, ptr %9, align 8, !tbaa !134
  %24 = getelementptr inbounds nuw %struct.dohentry, ptr %23, i32 0, i32 4
  %25 = load i32, ptr %24, align 8, !tbaa !145
  %26 = add nsw i32 %25, 1
  store i32 %26, ptr %24, align 8, !tbaa !145
  %27 = sext i32 %25 to i64
  %28 = getelementptr inbounds [4 x %struct.dynbuf], ptr %22, i64 0, i64 %27
  store ptr %28, ptr %10, align 8, !tbaa !181
  br label %29

29:                                               ; preds = %125, %20
  %30 = load i32, ptr %8, align 4, !tbaa !11
  %31 = zext i32 %30 to i64
  %32 = load i64, ptr %7, align 8, !tbaa !86
  %33 = icmp uge i64 %31, %32
  br i1 %33, label %34, label %35

34:                                               ; preds = %29
  store i32 2, ptr %5, align 4
  store i32 1, ptr %13, align 4
  br label %132

35:                                               ; preds = %29
  %36 = load ptr, ptr %6, align 8, !tbaa !9
  %37 = load i32, ptr %8, align 4, !tbaa !11
  %38 = zext i32 %37 to i64
  %39 = getelementptr inbounds nuw i8, ptr %36, i64 %38
  %40 = load i8, ptr %39, align 1, !tbaa !140
  store i8 %40, ptr %12, align 1, !tbaa !140
  %41 = load i8, ptr %12, align 1, !tbaa !140
  %42 = zext i8 %41 to i32
  %43 = and i32 %42, 192
  %44 = icmp eq i32 %43, 192
  br i1 %44, label %45, label %68

45:                                               ; preds = %35
  call void @llvm.lifetime.start.p0(i64 4, ptr %14) #7
  %46 = load i32, ptr %8, align 4, !tbaa !11
  %47 = add i32 %46, 1
  %48 = zext i32 %47 to i64
  %49 = load i64, ptr %7, align 8, !tbaa !86
  %50 = icmp uge i64 %48, %49
  br i1 %50, label %51, label %52

51:                                               ; preds = %45
  store i32 2, ptr %5, align 4
  store i32 1, ptr %13, align 4
  br label %66

52:                                               ; preds = %45
  %53 = load i8, ptr %12, align 1, !tbaa !140
  %54 = zext i8 %53 to i32
  %55 = and i32 %54, 63
  %56 = shl i32 %55, 8
  %57 = load ptr, ptr %6, align 8, !tbaa !9
  %58 = load i32, ptr %8, align 4, !tbaa !11
  %59 = add i32 %58, 1
  %60 = zext i32 %59 to i64
  %61 = getelementptr inbounds nuw i8, ptr %57, i64 %60
  %62 = load i8, ptr %61, align 1, !tbaa !140
  %63 = zext i8 %62 to i32
  %64 = or i32 %56, %63
  store i32 %64, ptr %14, align 4, !tbaa !11
  %65 = load i32, ptr %14, align 4, !tbaa !11
  store i32 %65, ptr %8, align 4, !tbaa !11
  store i32 3, ptr %13, align 4
  br label %66

66:                                               ; preds = %52, %51
  call void @llvm.lifetime.end.p0(i64 4, ptr %14) #7
  %67 = load i32, ptr %13, align 4
  switch i32 %67, label %132 [
    i32 3, label %117
  ]

68:                                               ; preds = %35
  %69 = load i8, ptr %12, align 1, !tbaa !140
  %70 = zext i8 %69 to i32
  %71 = and i32 %70, 192
  %72 = icmp ne i32 %71, 0
  br i1 %72, label %73, label %74

73:                                               ; preds = %68
  store i32 1, ptr %5, align 4
  store i32 1, ptr %13, align 4
  br label %132

74:                                               ; preds = %68
  %75 = load i32, ptr %8, align 4, !tbaa !11
  %76 = add i32 %75, 1
  store i32 %76, ptr %8, align 4, !tbaa !11
  br label %77

77:                                               ; preds = %74
  br label %78

78:                                               ; preds = %77
  %79 = load i8, ptr %12, align 1, !tbaa !140
  %80 = icmp ne i8 %79, 0
  br i1 %80, label %81, label %116

81:                                               ; preds = %78
  %82 = load ptr, ptr %10, align 8, !tbaa !181
  %83 = call i64 @Curl_dyn_len(ptr noundef %82)
  %84 = icmp ne i64 %83, 0
  br i1 %84, label %85, label %91

85:                                               ; preds = %81
  %86 = load ptr, ptr %10, align 8, !tbaa !181
  %87 = call i32 @Curl_dyn_addn(ptr noundef %86, ptr noundef @.str.9, i64 noundef 1)
  %88 = icmp ne i32 %87, 0
  br i1 %88, label %89, label %90

89:                                               ; preds = %85
  store i32 5, ptr %5, align 4
  store i32 1, ptr %13, align 4
  br label %132

90:                                               ; preds = %85
  br label %91

91:                                               ; preds = %90, %81
  %92 = load i32, ptr %8, align 4, !tbaa !11
  %93 = load i8, ptr %12, align 1, !tbaa !140
  %94 = zext i8 %93 to i32
  %95 = add i32 %92, %94
  %96 = zext i32 %95 to i64
  %97 = load i64, ptr %7, align 8, !tbaa !86
  %98 = icmp ugt i64 %96, %97
  br i1 %98, label %99, label %100

99:                                               ; preds = %91
  store i32 1, ptr %5, align 4
  store i32 1, ptr %13, align 4
  br label %132

100:                                              ; preds = %91
  %101 = load ptr, ptr %10, align 8, !tbaa !181
  %102 = load ptr, ptr %6, align 8, !tbaa !9
  %103 = load i32, ptr %8, align 4, !tbaa !11
  %104 = zext i32 %103 to i64
  %105 = getelementptr inbounds nuw i8, ptr %102, i64 %104
  %106 = load i8, ptr %12, align 1, !tbaa !140
  %107 = zext i8 %106 to i64
  %108 = call i32 @Curl_dyn_addn(ptr noundef %101, ptr noundef %105, i64 noundef %107)
  %109 = icmp ne i32 %108, 0
  br i1 %109, label %110, label %111

110:                                              ; preds = %100
  store i32 5, ptr %5, align 4
  store i32 1, ptr %13, align 4
  br label %132

111:                                              ; preds = %100
  %112 = load i8, ptr %12, align 1, !tbaa !140
  %113 = zext i8 %112 to i32
  %114 = load i32, ptr %8, align 4, !tbaa !11
  %115 = add i32 %114, %113
  store i32 %115, ptr %8, align 4, !tbaa !11
  br label %116

116:                                              ; preds = %111, %78
  br label %117

117:                                              ; preds = %116, %66
  %118 = load i8, ptr %12, align 1, !tbaa !140
  %119 = zext i8 %118 to i32
  %120 = icmp ne i32 %119, 0
  br i1 %120, label %121, label %125

121:                                              ; preds = %117
  %122 = load i32, ptr %11, align 4, !tbaa !11
  %123 = add i32 %122, -1
  store i32 %123, ptr %11, align 4, !tbaa !11
  %124 = icmp ne i32 %123, 0
  br label %125

125:                                              ; preds = %121, %117
  %126 = phi i1 [ false, %117 ], [ %124, %121 ]
  br i1 %126, label %29, label %127, !llvm.loop !184

127:                                              ; preds = %125
  %128 = load i32, ptr %11, align 4, !tbaa !11
  %129 = icmp ne i32 %128, 0
  br i1 %129, label %131, label %130

130:                                              ; preds = %127
  store i32 3, ptr %5, align 4
  store i32 1, ptr %13, align 4
  br label %132

131:                                              ; preds = %127
  store i32 0, ptr %5, align 4
  store i32 1, ptr %13, align 4
  br label %132

132:                                              ; preds = %131, %130, %110, %99, %89, %73, %66, %34, %19
  call void @llvm.lifetime.end.p0(i64 1, ptr %12) #7
  call void @llvm.lifetime.end.p0(i64 4, ptr %11) #7
  call void @llvm.lifetime.end.p0(i64 8, ptr %10) #7
  %133 = load i32, ptr %5, align 4
  ret i32 %133
}

; Function Attrs: nounwind uwtable
define internal void @doh_store_aaaa(ptr noundef %0, i32 noundef %1, ptr noundef %2) #0 {
  %4 = alloca ptr, align 8
  %5 = alloca i32, align 4
  %6 = alloca ptr, align 8
  %7 = alloca ptr, align 8
  store ptr %0, ptr %4, align 8, !tbaa !9
  store i32 %1, ptr %5, align 4, !tbaa !11
  store ptr %2, ptr %6, align 8, !tbaa !134
  %8 = load ptr, ptr %6, align 8, !tbaa !134
  %9 = getelementptr inbounds nuw %struct.dohentry, ptr %8, i32 0, i32 2
  %10 = load i32, ptr %9, align 8, !tbaa !146
  %11 = icmp slt i32 %10, 24
  br i1 %11, label %12, label %32

12:                                               ; preds = %3
  call void @llvm.lifetime.start.p0(i64 8, ptr %7) #7
  %13 = load ptr, ptr %6, align 8, !tbaa !134
  %14 = getelementptr inbounds nuw %struct.dohentry, ptr %13, i32 0, i32 1
  %15 = load ptr, ptr %6, align 8, !tbaa !134
  %16 = getelementptr inbounds nuw %struct.dohentry, ptr %15, i32 0, i32 2
  %17 = load i32, ptr %16, align 8, !tbaa !146
  %18 = sext i32 %17 to i64
  %19 = getelementptr inbounds [24 x %struct.dohaddr], ptr %14, i64 0, i64 %18
  store ptr %19, ptr %7, align 8, !tbaa !147
  %20 = load ptr, ptr %7, align 8, !tbaa !147
  %21 = getelementptr inbounds nuw %struct.dohaddr, ptr %20, i32 0, i32 0
  store i32 28, ptr %21, align 4, !tbaa !149
  %22 = load ptr, ptr %7, align 8, !tbaa !147
  %23 = getelementptr inbounds nuw %struct.dohaddr, ptr %22, i32 0, i32 1
  %24 = load ptr, ptr %4, align 8, !tbaa !9
  %25 = load i32, ptr %5, align 4, !tbaa !11
  %26 = sext i32 %25 to i64
  %27 = getelementptr inbounds i8, ptr %24, i64 %26
  call void @llvm.memcpy.p0.p0.i64(ptr align 4 %23, ptr align 1 %27, i64 16, i1 false)
  %28 = load ptr, ptr %6, align 8, !tbaa !134
  %29 = getelementptr inbounds nuw %struct.dohentry, ptr %28, i32 0, i32 2
  %30 = load i32, ptr %29, align 8, !tbaa !146
  %31 = add nsw i32 %30, 1
  store i32 %31, ptr %29, align 8, !tbaa !146
  call void @llvm.lifetime.end.p0(i64 8, ptr %7) #7
  br label %32

32:                                               ; preds = %12, %3
  ret void
}

; Function Attrs: nounwind uwtable
define internal void @doh_store_a(ptr noundef %0, i32 noundef %1, ptr noundef %2) #0 {
  %4 = alloca ptr, align 8
  %5 = alloca i32, align 4
  %6 = alloca ptr, align 8
  %7 = alloca ptr, align 8
  store ptr %0, ptr %4, align 8, !tbaa !9
  store i32 %1, ptr %5, align 4, !tbaa !11
  store ptr %2, ptr %6, align 8, !tbaa !134
  %8 = load ptr, ptr %6, align 8, !tbaa !134
  %9 = getelementptr inbounds nuw %struct.dohentry, ptr %8, i32 0, i32 2
  %10 = load i32, ptr %9, align 8, !tbaa !146
  %11 = icmp slt i32 %10, 24
  br i1 %11, label %12, label %32

12:                                               ; preds = %3
  call void @llvm.lifetime.start.p0(i64 8, ptr %7) #7
  %13 = load ptr, ptr %6, align 8, !tbaa !134
  %14 = getelementptr inbounds nuw %struct.dohentry, ptr %13, i32 0, i32 1
  %15 = load ptr, ptr %6, align 8, !tbaa !134
  %16 = getelementptr inbounds nuw %struct.dohentry, ptr %15, i32 0, i32 2
  %17 = load i32, ptr %16, align 8, !tbaa !146
  %18 = sext i32 %17 to i64
  %19 = getelementptr inbounds [24 x %struct.dohaddr], ptr %14, i64 0, i64 %18
  store ptr %19, ptr %7, align 8, !tbaa !147
  %20 = load ptr, ptr %7, align 8, !tbaa !147
  %21 = getelementptr inbounds nuw %struct.dohaddr, ptr %20, i32 0, i32 0
  store i32 1, ptr %21, align 4, !tbaa !149
  %22 = load ptr, ptr %7, align 8, !tbaa !147
  %23 = getelementptr inbounds nuw %struct.dohaddr, ptr %22, i32 0, i32 1
  %24 = load ptr, ptr %4, align 8, !tbaa !9
  %25 = load i32, ptr %5, align 4, !tbaa !11
  %26 = sext i32 %25 to i64
  %27 = getelementptr inbounds i8, ptr %24, i64 %26
  call void @llvm.memcpy.p0.p0.i64(ptr align 4 %23, ptr align 1 %27, i64 4, i1 false)
  %28 = load ptr, ptr %6, align 8, !tbaa !134
  %29 = getelementptr inbounds nuw %struct.dohentry, ptr %28, i32 0, i32 2
  %30 = load i32, ptr %29, align 8, !tbaa !146
  %31 = add nsw i32 %30, 1
  store i32 %31, ptr %29, align 8, !tbaa !146
  call void @llvm.lifetime.end.p0(i64 8, ptr %7) #7
  br label %32

32:                                               ; preds = %12, %3
  ret void
}

; Function Attrs: nounwind uwtable
define internal i32 @doh_rdata(ptr noundef %0, i64 noundef %1, i16 noundef zeroext %2, i16 noundef zeroext %3, i32 noundef %4, ptr noundef %5) #0 {
  %7 = alloca i32, align 4
  %8 = alloca ptr, align 8
  %9 = alloca i64, align 8
  %10 = alloca i16, align 2
  %11 = alloca i16, align 2
  %12 = alloca i32, align 4
  %13 = alloca ptr, align 8
  %14 = alloca i32, align 4
  %15 = alloca i32, align 4
  store ptr %0, ptr %8, align 8, !tbaa !9
  store i64 %1, ptr %9, align 8, !tbaa !86
  store i16 %2, ptr %10, align 2, !tbaa !139
  store i16 %3, ptr %11, align 2, !tbaa !139
  store i32 %4, ptr %12, align 4, !tbaa !11
  store ptr %5, ptr %13, align 8, !tbaa !134
  call void @llvm.lifetime.start.p0(i64 4, ptr %14) #7
  %16 = load i16, ptr %11, align 2, !tbaa !139
  %17 = zext i16 %16 to i32
  switch i32 %17, label %47 [
    i32 1, label %18
    i32 28, label %27
    i32 5, label %36
    i32 39, label %48
  ]

18:                                               ; preds = %6
  %19 = load i16, ptr %10, align 2, !tbaa !139
  %20 = zext i16 %19 to i32
  %21 = icmp ne i32 %20, 4
  br i1 %21, label %22, label %23

22:                                               ; preds = %18
  store i32 6, ptr %7, align 4
  store i32 1, ptr %15, align 4
  br label %49

23:                                               ; preds = %18
  %24 = load ptr, ptr %8, align 8, !tbaa !9
  %25 = load i32, ptr %12, align 4, !tbaa !11
  %26 = load ptr, ptr %13, align 8, !tbaa !134
  call void @doh_store_a(ptr noundef %24, i32 noundef %25, ptr noundef %26)
  br label %48

27:                                               ; preds = %6
  %28 = load i16, ptr %10, align 2, !tbaa !139
  %29 = zext i16 %28 to i32
  %30 = icmp ne i32 %29, 16
  br i1 %30, label %31, label %32

31:                                               ; preds = %27
  store i32 6, ptr %7, align 4
  store i32 1, ptr %15, align 4
  br label %49

32:                                               ; preds = %27
  %33 = load ptr, ptr %8, align 8, !tbaa !9
  %34 = load i32, ptr %12, align 4, !tbaa !11
  %35 = load ptr, ptr %13, align 8, !tbaa !134
  call void @doh_store_aaaa(ptr noundef %33, i32 noundef %34, ptr noundef %35)
  br label %48

36:                                               ; preds = %6
  %37 = load ptr, ptr %8, align 8, !tbaa !9
  %38 = load i64, ptr %9, align 8, !tbaa !86
  %39 = load i32, ptr %12, align 4, !tbaa !11
  %40 = load ptr, ptr %13, align 8, !tbaa !134
  %41 = call i32 @doh_store_cname(ptr noundef %37, i64 noundef %38, i32 noundef %39, ptr noundef %40)
  store i32 %41, ptr %14, align 4, !tbaa !11
  %42 = load i32, ptr %14, align 4, !tbaa !11
  %43 = icmp ne i32 %42, 0
  br i1 %43, label %44, label %46

44:                                               ; preds = %36
  %45 = load i32, ptr %14, align 4, !tbaa !11
  store i32 %45, ptr %7, align 4
  store i32 1, ptr %15, align 4
  br label %49

46:                                               ; preds = %36
  br label %48

47:                                               ; preds = %6
  br label %48

48:                                               ; preds = %47, %6, %46, %32, %23
  store i32 0, ptr %7, align 4
  store i32 1, ptr %15, align 4
  br label %49

49:                                               ; preds = %48, %44, %31, %22
  call void @llvm.lifetime.end.p0(i64 4, ptr %14) #7
  %50 = load i32, ptr %7, align 4
  ret i32 %50
}